target datalayout = "e-m:e-p270:32:32-p271:32:32-p272:64:64-i64:64-i128:128-f80:128-n8:16:32:64-S128"
target triple = "x86_64-pc-linux-gnu"

%struct.par_shapes_mesh_s = type { ptr, i32, ptr, i32, ptr, ptr }

; Function Attrs: nounwind uwtable
define hidden void @par_shapes_rotate(ptr noundef %0, float noundef %1, ptr noundef %2) #0 {
  %4 = alloca ptr, align 8
  %5 = alloca float, align 4
  %6 = alloca ptr, align 8
  %7 = alloca float, align 4
  %8 = alloca float, align 4
  %9 = alloca float, align 4
  %10 = alloca float, align 4
  %11 = alloca float, align 4
  %12 = alloca float, align 4
  %13 = alloca float, align 4
  %14 = alloca float, align 4
  %15 = alloca float, align 4
  %16 = alloca [3 x float], align 4
  %17 = alloca [3 x float], align 4
  %18 = alloca [3 x float], align 4
  %19 = alloca ptr, align 8
  %20 = alloca i32, align 4
  %21 = alloca float, align 4
  %22 = alloca float, align 4
  %23 = alloca float, align 4
  %24 = alloca ptr, align 8
  %25 = alloca i32, align 4
  %26 = alloca float, align 4
  %27 = alloca float, align 4
  %28 = alloca float, align 4
  store ptr %0, ptr %4, align 8
  store float %1, ptr %5, align 4
  store ptr %2, ptr %6, align 8
  call void @llvm.lifetime.start.p0(i64 4, ptr %7) #16
  %29 = load float, ptr %5, align 4
  %30 = call float @sinf(float noundef %29) #16
  store float %30, ptr %7, align 4
  call void @llvm.lifetime.start.p0(i64 4, ptr %8) #16
  %31 = load float, ptr %5, align 4
  %32 = call float @cosf(float noundef %31) #16
  store float %32, ptr %8, align 4
  call void @llvm.lifetime.start.p0(i64 4, ptr %9) #16
  %33 = load ptr, ptr %6, align 8
  %34 = getelementptr inbounds float, ptr %33, i64 0
  %35 = load float, ptr %34, align 4
  store float %35, ptr %9, align 4
  call void @llvm.lifetime.start.p0(i64 4, ptr %10) #16
  %36 = load ptr, ptr %6, align 8
  %37 = getelementptr inbounds float, ptr %36, i64 1
  %38 = load float, ptr %37, align 4
  store float %38, ptr %10, align 4
  call void @llvm.lifetime.start.p0(i64 4, ptr %11) #16
  %39 = load ptr, ptr %6, align 8
  %40 = getelementptr inbounds float, ptr %39, i64 2
  %41 = load float, ptr %40, align 4
  store float %41, ptr %11, align 4
  call void @llvm.lifetime.start.p0(i64 4, ptr %12) #16
  %42 = load float, ptr %9, align 4
  %43 = load float, ptr %10, align 4
  %44 = fmul float %42, %43
  store float %44, ptr %12, align 4
  call void @llvm.lifetime.start.p0(i64 4, ptr %13) #16
  %45 = load float, ptr %10, align 4
  %46 = load float, ptr %11, align 4
  %47 = fmul float %45, %46
  store float %47, ptr %13, align 4
  call void @llvm.lifetime.start.p0(i64 4, ptr %14) #16
  %48 = load float, ptr %11, align 4
  %49 = load float, ptr %9, align 4
  %50 = fmul float %48, %49
  store float %50, ptr %14, align 4
  call void @llvm.lifetime.start.p0(i64 4, ptr %15) #16
  %51 = load float, ptr %8, align 4
  %52 = fsub float 1.000000e+00, %51
  store float %52, ptr %15, align 4
  call void @llvm.lifetime.start.p0(i64 12, ptr %16) #16
  %53 = load float, ptr %9, align 4
  %54 = load float, ptr %9, align 4
  %55 = fmul float %53, %54
  %56 = load float, ptr %15, align 4
  %57 = load float, ptr %8, align 4
  %58 = call float @llvm.fmuladd.f32(float %55, float %56, float %57)
  store float %58, ptr %16, align 4
  %59 = getelementptr inbounds float, ptr %16, i64 1
  %60 = load float, ptr %12, align 4
  %61 = load float, ptr %15, align 4
  %62 = load float, ptr %11, align 4
  %63 = load float, ptr %7, align 4
  %64 = fmul float %62, %63
  %65 = call float @llvm.fmuladd.f32(float %60, float %61, float %64)
  store float %65, ptr %59, align 4
  %66 = getelementptr inbounds float, ptr %16, i64 2
  %67 = load float, ptr %14, align 4
  %68 = load float, ptr %15, align 4
  %69 = load float, ptr %10, align 4
  %70 = load float, ptr %7, align 4
  %71 = fmul float %69, %70
  %72 = fneg float %71
  %73 = call float @llvm.fmuladd.f32(float %67, float %68, float %72)
  store float %73, ptr %66, align 4
  call void @llvm.lifetime.start.p0(i64 12, ptr %17) #16
  %74 = load float, ptr %12, align 4
  %75 = load float, ptr %15, align 4
  %76 = load float, ptr %11, align 4
  %77 = load float, ptr %7, align 4
  %78 = fmul float %76, %77
  %79 = fneg float %78
  %80 = call float @llvm.fmuladd.f32(float %74, float %75, float %79)
  store float %80, ptr %17, align 4
  %81 = getelementptr inbounds float, ptr %17, i64 1
  %82 = load float, ptr %10, align 4
  %83 = load float, ptr %10, align 4
  %84 = fmul float %82, %83
  %85 = load float, ptr %15, align 4
  %86 = load float, ptr %8, align 4
  %87 = call float @llvm.fmuladd.f32(float %84, float %85, float %86)
  store float %87, ptr %81, align 4
  %88 = getelementptr inbounds float, ptr %17, i64 2
  %89 = load float, ptr %13, align 4
  %90 = load float, ptr %15, align 4
  %91 = load float, ptr %9, align 4
  %92 = load float, ptr %7, align 4
  %93 = fmul float %91, %92
  %94 = call float @llvm.fmuladd.f32(float %89, float %90, float %93)
  store float %94, ptr %88, align 4
  call void @llvm.lifetime.start.p0(i64 12, ptr %18) #16
  %95 = load float, ptr %14, align 4
  %96 = load float, ptr %15, align 4
  %97 = load float, ptr %10, align 4
  %98 = load float, ptr %7, align 4
  %99 = fmul float %97, %98
  %100 = call float @llvm.fmuladd.f32(float %95, float %96, float %99)
  store float %100, ptr %18, align 4
  %101 = getelementptr inbounds float, ptr %18, i64 1
  %102 = load float, ptr %13, align 4
  %103 = load float, ptr %15, align 4
  %104 = load float, ptr %9, align 4
  %105 = load float, ptr %7, align 4
  %106 = fmul float %104, %105
  %107 = fneg float %106
  %108 = call float @llvm.fmuladd.f32(float %102, float %103, float %107)
  store float %108, ptr %101, align 4
  %109 = getelementptr inbounds float, ptr %18, i64 2
  %110 = load float, ptr %11, align 4
  %111 = load float, ptr %11, align 4
  %112 = fmul float %110, %111
  %113 = load float, ptr %15, align 4
  %114 = load float, ptr %8, align 4
  %115 = call float @llvm.fmuladd.f32(float %112, float %113, float %114)
  store float %115, ptr %109, align 4
  call void @llvm.lifetime.start.p0(i64 8, ptr %19) #16
  %116 = load ptr, ptr %4, align 8
  %117 = getelementptr inbounds nuw %struct.par_shapes_mesh_s, ptr %116, i32 0, i32 0
  %118 = load ptr, ptr %117, align 8
  store ptr %118, ptr %19, align 8
  call void @llvm.lifetime.start.p0(i64 4, ptr %20) #16
  store i32 0, ptr %20, align 4
  br label %119

119:                                              ; preds = %190, %3
  %120 = load i32, ptr %20, align 4
  %121 = load ptr, ptr %4, align 8
  %122 = getelementptr inbounds nuw %struct.par_shapes_mesh_s, ptr %121, i32 0, i32 1
  %123 = load i32, ptr %122, align 8
  %124 = icmp slt i32 %120, %123
  br i1 %124, label %126, label %125

125:                                              ; preds = %119
  call void @llvm.lifetime.end.p0(i64 4, ptr %20) #16
  br label %195

126:                                              ; preds = %119
  call void @llvm.lifetime.start.p0(i64 4, ptr %21) #16
  %127 = getelementptr inbounds [3 x float], ptr %16, i64 0, i64 0
  %128 = load float, ptr %127, align 4
  %129 = load ptr, ptr %19, align 8
  %130 = getelementptr inbounds float, ptr %129, i64 0
  %131 = load float, ptr %130, align 4
  %132 = getelementptr inbounds [3 x float], ptr %17, i64 0, i64 0
  %133 = load float, ptr %132, align 4
  %134 = load ptr, ptr %19, align 8
  %135 = getelementptr inbounds float, ptr %134, i64 1
  %136 = load float, ptr %135, align 4
  %137 = fmul float %133, %136
  %138 = call float @llvm.fmuladd.f32(float %128, float %131, float %137)
  %139 = getelementptr inbounds [3 x float], ptr %18, i64 0, i64 0
  %140 = load float, ptr %139, align 4
  %141 = load ptr, ptr %19, align 8
  %142 = getelementptr inbounds float, ptr %141, i64 2
  %143 = load float, ptr %142, align 4
  %144 = call float @llvm.fmuladd.f32(float %140, float %143, float %138)
  store float %144, ptr %21, align 4
  call void @llvm.lifetime.start.p0(i64 4, ptr %22) #16
  %145 = getelementptr inbounds [3 x float], ptr %16, i64 0, i64 1
  %146 = load float, ptr %145, align 4
  %147 = load ptr, ptr %19, align 8
  %148 = getelementptr inbounds float, ptr %147, i64 0
  %149 = load float, ptr %148, align 4
  %150 = getelementptr inbounds [3 x float], ptr %17, i64 0, i64 1
  %151 = load float, ptr %150, align 4
  %152 = load ptr, ptr %19, align 8
  %153 = getelementptr inbounds float, ptr %152, i64 1
  %154 = load float, ptr %153, align 4
  %155 = fmul float %151, %154
  %156 = call float @llvm.fmuladd.f32(float %146, float %149, float %155)
  %157 = getelementptr inbounds [3 x float], ptr %18, i64 0, i64 1
  %158 = load float, ptr %157, align 4
  %159 = load ptr, ptr %19, align 8
  %160 = getelementptr inbounds float, ptr %159, i64 2
  %161 = load float, ptr %160, align 4
  %162 = call float @llvm.fmuladd.f32(float %158, float %161, float %156)
  store float %162, ptr %22, align 4
  call void @llvm.lifetime.start.p0(i64 4, ptr %23) #16
  %163 = getelementptr inbounds [3 x float], ptr %16, i64 0, i64 2
  %164 = load float, ptr %163, align 4
  %165 = load ptr, ptr %19, align 8
  %166 = getelementptr inbounds float, ptr %165, i64 0
  %167 = load float, ptr %166, align 4
  %168 = getelementptr inbounds [3 x float], ptr %17, i64 0, i64 2
  %169 = load float, ptr %168, align 4
  %170 = load ptr, ptr %19, align 8
  %171 = getelementptr inbounds float, ptr %170, i64 1
  %172 = load float, ptr %171, align 4
  %173 = fmul float %169, %172
  %174 = call float @llvm.fmuladd.f32(float %164, float %167, float %173)
  %175 = getelementptr inbounds [3 x float], ptr %18, i64 0, i64 2
  %176 = load float, ptr %175, align 4
  %177 = load ptr, ptr %19, align 8
  %178 = getelementptr inbounds float, ptr %177, i64 2
  %179 = load float, ptr %178, align 4
  %180 = call float @llvm.fmuladd.f32(float %176, float %179, float %174)
  store float %180, ptr %23, align 4
  %181 = load float, ptr %21, align 4
  %182 = load ptr, ptr %19, align 8
  %183 = getelementptr inbounds float, ptr %182, i64 0
  store float %181, ptr %183, align 4
  %184 = load float, ptr %22, align 4
  %185 = load ptr, ptr %19, align 8
  %186 = getelementptr inbounds float, ptr %185, i64 1
  store float %184, ptr %186, align 4
  %187 = load float, ptr %23, align 4
  %188 = load ptr, ptr %19, align 8
  %189 = getelementptr inbounds float, ptr %188, i64 2
  store float %187, ptr %189, align 4
  call void @llvm.lifetime.end.p0(i64 4, ptr %23) #16
  call void @llvm.lifetime.end.p0(i64 4, ptr %22) #16
  call void @llvm.lifetime.end.p0(i64 4, ptr %21) #16
  br label %190

190:                                              ; preds = %126
  %191 = load i32, ptr %20, align 4
  %192 = add nsw i32 %191, 1
  store i32 %192, ptr %20, align 4
  %193 = load ptr, ptr %19, align 8
  %194 = getelementptr inbounds float, ptr %193, i64 3
  store ptr %194, ptr %19, align 8
  br label %119

195:                                              ; preds = %125
  call void @llvm.lifetime.start.p0(i64 8, ptr %24) #16
  %196 = load ptr, ptr %4, align 8
  %197 = getelementptr inbounds nuw %struct.par_shapes_mesh_s, ptr %196, i32 0, i32 4
  %198 = load ptr, ptr %197, align 8
  store ptr %198, ptr %24, align 8
  %199 = load ptr, ptr %24, align 8
  %200 = icmp ne ptr %199, null
  br i1 %200, label %201, label %279

201:                                              ; preds = %195
  call void @llvm.lifetime.start.p0(i64 4, ptr %25) #16
  store i32 0, ptr %25, align 4
  br label %202

202:                                              ; preds = %273, %201
  %203 = load i32, ptr %25, align 4
  %204 = load ptr, ptr %4, align 8
  %205 = getelementptr inbounds nuw %struct.par_shapes_mesh_s, ptr %204, i32 0, i32 1
  %206 = load i32, ptr %205, align 8
  %207 = icmp slt i32 %203, %206
  br i1 %207, label %209, label %208

208:                                              ; preds = %202
  call void @llvm.lifetime.end.p0(i64 4, ptr %25) #16
  br label %278

209:                                              ; preds = %202
  call void @llvm.lifetime.start.p0(i64 4, ptr %26) #16
  %210 = getelementptr inbounds [3 x float], ptr %16, i64 0, i64 0
  %211 = load float, ptr %210, align 4
  %212 = load ptr, ptr %24, align 8
  %213 = getelementptr inbounds float, ptr %212, i64 0
  %214 = load float, ptr %213, align 4
  %215 = getelementptr inbounds [3 x float], ptr %17, i64 0, i64 0
  %216 = load float, ptr %215, align 4
  %217 = load ptr, ptr %24, align 8
  %218 = getelementptr inbounds float, ptr %217, i64 1
  %219 = load float, ptr %218, align 4
  %220 = fmul float %216, %219
  %221 = call float @llvm.fmuladd.f32(float %211, float %214, float %220)
  %222 = getelementptr inbounds [3 x float], ptr %18, i64 0, i64 0
  %223 = load float, ptr %222, align 4
  %224 = load ptr, ptr %24, align 8
  %225 = getelementptr inbounds float, ptr %224, i64 2
  %226 = load float, ptr %225, align 4
  %227 = call float @llvm.fmuladd.f32(float %223, float %226, float %221)
  store float %227, ptr %26, align 4
  call void @llvm.lifetime.start.p0(i64 4, ptr %27) #16
  %228 = getelementptr inbounds [3 x float], ptr %16, i64 0, i64 1
  %229 = load float, ptr %228, align 4
  %230 = load ptr, ptr %24, align 8
  %231 = getelementptr inbounds float, ptr %230, i64 0
  %232 = load float, ptr %231, align 4
  %233 = getelementptr inbounds [3 x float], ptr %17, i64 0, i64 1
  %234 = load float, ptr %233, align 4
  %235 = load ptr, ptr %24, align 8
  %236 = getelementptr inbounds float, ptr %235, i64 1
  %237 = load float, ptr %236, align 4
  %238 = fmul float %234, %237
  %239 = call float @llvm.fmuladd.f32(float %229, float %232, float %238)
  %240 = getelementptr inbounds [3 x float], ptr %18, i64 0, i64 1
  %241 = load float, ptr %240, align 4
  %242 = load ptr, ptr %24, align 8
  %243 = getelementptr inbounds float, ptr %242, i64 2
  %244 = load float, ptr %243, align 4
  %245 = call float @llvm.fmuladd.f32(float %241, float %244, float %239)
  store float %245, ptr %27, align 4
  call void @llvm.lifetime.start.p0(i64 4, ptr %28) #16
  %246 = getelementptr inbounds [3 x float], ptr %16, i64 0, i64 2
  %247 = load float, ptr %246, align 4
  %248 = load ptr, ptr %24, align 8
  %249 = getelementptr inbounds float, ptr %248, i64 0
  %250 = load float, ptr %249, align 4
  %251 = getelementptr inbounds [3 x float], ptr %17, i64 0, i64 2
  %252 = load float, ptr %251, align 4
  %253 = load ptr, ptr %24, align 8
  %254 = getelementptr inbounds float, ptr %253, i64 1
  %255 = load float, ptr %254, align 4
  %256 = fmul float %252, %255
  %257 = call float @llvm.fmuladd.f32(float %247, float %250, float %256)
  %258 = getelementptr inbounds [3 x float], ptr %18, i64 0, i64 2
  %259 = load float, ptr %258, align 4
  %260 = load ptr, ptr %24, align 8
  %261 = getelementptr inbounds float, ptr %260, i64 2
  %262 = load float, ptr %261, align 4
  %263 = call float @llvm.fmuladd.f32(float %259, float %262, float %257)
  store float %263, ptr %28, align 4
  %264 = load float, ptr %26, align 4
  %265 = load ptr, ptr %24, align 8
  %266 = getelementptr inbounds float, ptr %265, i64 0
  store float %264, ptr %266, align 4
  %267 = load float, ptr %27, align 4
  %268 = load ptr, ptr %24, align 8
  %269 = getelementptr inbounds float, ptr %268, i64 1
  store float %267, ptr %269, align 4
  %270 = load float, ptr %28, align 4
  %271 = load ptr, ptr %24, align 8
  %272 = getelementptr inbounds float, ptr %271, i64 2
  store float %270, ptr %272, align 4
  call void @llvm.lifetime.end.p0(i64 4, ptr %28) #16
  call void @llvm.lifetime.end.p0(i64 4, ptr %27) #16
  call void @llvm.lifetime.end.p0(i64 4, ptr %26) #16
  br label %273

273:                                              ; preds = %209
  %274 = load i32, ptr %25, align 4
  %275 = add nsw i32 %274, 1
  store i32 %275, ptr %25, align 4
  %276 = load ptr, ptr %24, align 8
  %277 = getelementptr inbounds float, ptr %276, i64 3
  store ptr %277, ptr %24, align 8
  br label %202

278:                                              ; preds = %208
  br label %279

279:                                              ; preds = %278, %195
  call void @llvm.lifetime.end.p0(i64 8, ptr %24) #16
  call void @llvm.lifetime.end.p0(i64 8, ptr %19) #16
  call void @llvm.lifetime.end.p0(i64 12, ptr %18) #16
  call void @llvm.lifetime.end.p0(i64 12, ptr %17) #16
  call void @llvm.lifetime.end.p0(i64 12, ptr %16) #16
  call void @llvm.lifetime.end.p0(i64 4, ptr %15) #16
  call void @llvm.lifetime.end.p0(i64 4, ptr %14) #16
  call void @llvm.lifetime.end.p0(i64 4, ptr %13) #16
  call void @llvm.lifetime.end.p0(i64 4, ptr %12) #16
  call void @llvm.lifetime.end.p0(i64 4, ptr %11) #16
  call void @llvm.lifetime.end.p0(i64 4, ptr %10) #16
  call void @llvm.lifetime.end.p0(i64 4, ptr %9) #16
  call void @llvm.lifetime.end.p0(i64 4, ptr %8) #16
  call void @llvm.lifetime.end.p0(i64 4, ptr %7) #16
  ret void
}