; Function Attrs: nofree nounwind memory(readwrite, inaccessiblemem: write) uwtable
define hidden void @par_shapes_rotate(ptr noundef readonly captures(none) %0, float noundef %1, ptr noundef readonly captures(none) %2) local_unnamed_addr #31 {
  %4 = tail call float @sinf(float noundef %1) #57
  %5 = tail call float @cosf(float noundef %1) #57
  %6 = load float, ptr %2, align 4
  %7 = getelementptr inbounds nuw i8, ptr %2, i64 4
  %8 = load float, ptr %7, align 4
  %9 = getelementptr inbounds nuw i8, ptr %2, i64 8
  %10 = load float, ptr %9, align 4
  %11 = fmul float %6, %8
  %12 = fmul float %8, %10
  %13 = fmul float %6, %10
  %14 = fsub float 1.000000e+00, %5
  %15 = fmul float %6, %6
  %16 = tail call float @llvm.fmuladd.f32(float %15, float %14, float %5)
  %17 = fmul float %4, %10
  %18 = tail call float @llvm.fmuladd.f32(float %11, float %14, float %17)
  %19 = fmul float %4, %8
  %20 = fneg float %19
  %21 = tail call float @llvm.fmuladd.f32(float %13, float %14, float %20)
  %22 = fneg float %17
  %23 = tail call float @llvm.fmuladd.f32(float %11, float %14, float %22)
  %24 = fmul float %8, %8
  %25 = tail call float @llvm.fmuladd.f32(float %24, float %14, float %5)
  %26 = fmul float %4, %6
  %27 = tail call float @llvm.fmuladd.f32(float %12, float %14, float %26)
  %28 = tail call float @llvm.fmuladd.f32(float %13, float %14, float %19)
  %29 = fneg float %26
  %30 = tail call float @llvm.fmuladd.f32(float %12, float %14, float %29)
  %31 = fmul float %10, %10
  %32 = tail call float @llvm.fmuladd.f32(float %31, float %14, float %5)
  %33 = getelementptr inbounds nuw i8, ptr %0, i64 8
  %34 = load i32, ptr %33, align 8
  %35 = icmp sgt i32 %34, 0
  br i1 %35, label %.lr.ph.preheader, label %.loopexit

.lr.ph.preheader:                                 ; preds = %3
  %36 = load ptr, ptr %0, align 8
  br label %.lr.ph

._crit_edge:                                      ; preds = %.lr.ph
  %37 = icmp slt i32 %56, 1
  %38 = getelementptr inbounds nuw i8, ptr %0, i64 32
  %39 = load ptr, ptr %38, align 8
  %.not = icmp eq ptr %39, null
  %brmerge = or i1 %.not, %37
  br i1 %brmerge, label %.loopexit, label %.lr.ph111

.lr.ph:                                           ; preds = %.lr.ph.preheader, %.lr.ph
  %.0108 = phi ptr [ %55, %.lr.ph ], [ %36, %.lr.ph.preheader ]
  %.0103107 = phi i32 [ %54, %.lr.ph ], [ 0, %.lr.ph.preheader ]
  %40 = load float, ptr %.0108, align 4
  %41 = getelementptr inbounds nuw i8, ptr %.0108, i64 4
  %42 = load float, ptr %41, align 4
  %43 = fmul float %23, %42
  %44 = tail call float @llvm.fmuladd.f32(float %16, float %40, float %43)
  %45 = getelementptr inbounds nuw i8, ptr %.0108, i64 8
  %46 = load float, ptr %45, align 4
  %47 = tail call float @llvm.fmuladd.f32(float %28, float %46, float %44)
  %48 = fmul float %25, %42
  %49 = tail call float @llvm.fmuladd.f32(float %18, float %40, float %48)
  %50 = tail call float @llvm.fmuladd.f32(float %30, float %46, float %49)
  %51 = fmul float %27, %42
  %52 = tail call float @llvm.fmuladd.f32(float %21, float %40, float %51)
  %53 = tail call float @llvm.fmuladd.f32(float %32, float %46, float %52)
  store float %47, ptr %.0108, align 4
  store float %50, ptr %41, align 4
  store float %53, ptr %45, align 4
  %54 = add nuw nsw i32 %.0103107, 1
  %55 = getelementptr inbounds nuw i8, ptr %.0108, i64 12
  %56 = load i32, ptr %33, align 8
  %57 = icmp slt i32 %54, %56
  br i1 %57, label %.lr.ph, label %._crit_edge

.lr.ph111:                                        ; preds = %._crit_edge, %.lr.ph111
  %.0104110 = phi ptr [ %73, %.lr.ph111 ], [ %39, %._crit_edge ]
  %.0105109 = phi i32 [ %72, %.lr.ph111 ], [ 0, %._crit_edge ]
  %58 = load float, ptr %.0104110, align 4
  %59 = getelementptr inbounds nuw i8, ptr %.0104110, i64 4
  %60 = load float, ptr %59, align 4
  %61 = fmul float %23, %60
  %62 = tail call float @llvm.fmuladd.f32(float %16, float %58, float %61)
  %63 = getelementptr inbounds nuw i8, ptr %.0104110, i64 8
  %64 = load float, ptr %63, align 4
  %65 = tail call float @llvm.fmuladd.f32(float %28, float %64, float %62)
  %66 = fmul float %25, %60
  %67 = tail call float @llvm.fmuladd.f32(float %18, float %58, float %66)
  %68 = tail call float @llvm.fmuladd.f32(float %30, float %64, float %67)
  %69 = fmul float %27, %60
  %70 = tail call float @llvm.fmuladd.f32(float %21, float %58, float %69)
  %71 = tail call float @llvm.fmuladd.f32(float %32, float %64, float %70)
  store float %65, ptr %.0104110, align 4
  store float %68, ptr %59, align 4
  store float %71, ptr %63, align 4
  %72 = add nuw nsw i32 %.0105109, 1
  %73 = getelementptr inbounds nuw i8, ptr %.0104110, i64 12
  %74 = load i32, ptr %33, align 8
  %75 = icmp slt i32 %72, %74
  br i1 %75, label %.lr.ph111, label %.loopexit

.loopexit:                                        ; preds = %.lr.ph111, %._crit_edge, %3
  ret void
}